; Function Attrs: mustprogress nounwind uwtable
define dso_local void @_ZN4llvm9symbolize11LLVMPrinter17printStartAddressERKNS_10DILineInfoE(ptr nocapture noundef nonnull readonly align 8 dereferenceable(40) %0, ptr nocapture noundef nonnull readonly align 8 dereferenceable(181) %1) unnamed_addr #0 align 2 {
  %3 = getelementptr inbounds nuw i8, ptr %1, i64 160
  %4 = getelementptr inbounds i8, ptr %1, i64 168
  %5 = load i8, ptr %4, align 8
  %6 = trunc i8 %5 to i1
  br i1 %6, label %7, label %_ZN4llvm11raw_ostreamlsEc.exit

7:                                                ; preds = %2
  %8 = getelementptr inbounds nuw i8, ptr %0, i64 8
  %9 = load ptr, ptr %8, align 8
  %10 = getelementptr inbounds nuw i8, ptr %9, i64 24
  %11 = load ptr, ptr %10, align 8
  %12 = getelementptr inbounds nuw i8, ptr %9, i64 32
  %13 = load ptr, ptr %12, align 8
  %14 = ptrtoint ptr %11 to i64
  %15 = ptrtoint ptr %13 to i64
  %16 = sub i64 %14, %15
  %17 = icmp ult i64 %16, 28
  br i1 %17, label %18, label %20

18:                                               ; preds = %7
  %19 = tail call noundef nonnull align 8 dereferenceable(48) ptr @_ZN4llvm11raw_ostream5writeEPKcm(ptr noundef nonnull align 8 dereferenceable(48) %9, ptr noundef nonnull @.str.18, i64 noundef 28) #17
  br label %_ZN4llvm11raw_ostreamlsEPKc.exit

20:                                               ; preds = %7
  tail call void @llvm.memcpy.p0.p0.i64(ptr noundef nonnull align 1 dereferenceable(28) %13, ptr noundef nonnull align 1 dereferenceable(28) @.str.18, i64 28, i1 false)
  %21 = load ptr, ptr %12, align 8
  %22 = getelementptr inbounds i8, ptr %21, i64 28
  store ptr %22, ptr %12, align 8
  br label %_ZN4llvm11raw_ostreamlsEPKc.exit

_ZN4llvm11raw_ostreamlsEPKc.exit:                 ; preds = %18, %20
  %23 = load ptr, ptr %8, align 8
  %24 = load i64, ptr %3, align 8
  %25 = tail call noundef nonnull align 8 dereferenceable(48) ptr @_ZN4llvm11raw_ostream9write_hexEy(ptr noundef nonnull align 8 dereferenceable(48) %23, i64 noundef %24) #17
  %26 = load ptr, ptr %8, align 8
  %27 = getelementptr inbounds nuw i8, ptr %26, i64 32
  %28 = load ptr, ptr %27, align 8
  %29 = getelementptr inbounds nuw i8, ptr %26, i64 24
  %30 = load ptr, ptr %29, align 8
  %.not.i = icmp ult ptr %28, %30
  br i1 %.not.i, label %33, label %31

31:                                               ; preds = %_ZN4llvm11raw_ostreamlsEPKc.exit
  %32 = tail call noundef nonnull align 8 dereferenceable(48) ptr @_ZN4llvm11raw_ostream5writeEh(ptr noundef nonnull align 8 dereferenceable(48) %26, i8 noundef zeroext 10) #17
  br label %_ZN4llvm11raw_ostreamlsEc.exit

33:                                               ; preds = %_ZN4llvm11raw_ostreamlsEPKc.exit
  %34 = getelementptr inbounds i8, ptr %28, i64 1
  store ptr %34, ptr %27, align 8
  store i8 10, ptr %28, align 1
  br label %_ZN4llvm11raw_ostreamlsEc.exit

_ZN4llvm11raw_ostreamlsEc.exit:                   ; preds = %33, %31, %2
  ret void
}